; Function Attrs: mustprogress nofree norecurse nosync nounwind willreturn memory(readwrite, inaccessiblemem: none) uwtable
define hidden noundef nonnull align 4 dereferenceable(20) ptr @_ZN3sat10clause_set5eraseEv(ptr nocapture noundef nonnull readonly align 8 dereferenceable(16) %this) local_unnamed_addr #4 align 2 {
entry:
  %m_set = getelementptr inbounds i8, ptr %this, i64 8
  %0 = load ptr, ptr %m_set, align 8
  %cmp.i.i = icmp eq ptr %0, null
  br i1 %cmp.i.i, label %_ZN6vectorIPN3sat6clauseELb0EjE4backEv.exit, label %if.end.i.i

if.end.i.i:                                       ; preds = %entry
  %arrayidx.i.i = getelementptr inbounds i8, ptr %0, i64 -4
  %1 = load i32, ptr %arrayidx.i.i, align 4
  %2 = add i32 %1, -1
  %3 = zext i32 %2 to i64
  br label %_ZN6vectorIPN3sat6clauseELb0EjE4backEv.exit

_ZN6vectorIPN3sat6clauseELb0EjE4backEv.exit:      ; preds = %entry, %if.end.i.i
  %retval.0.i.i = phi i64 [ %3, %if.end.i.i ], [ 4294967295, %entry ]
  %arrayidx.i1.i = getelementptr inbounds ptr, ptr %0, i64 %retval.0.i.i
  %4 = load ptr, ptr %arrayidx.i1.i, align 8
  %5 = load i32, ptr %4, align 4
  %6 = load ptr, ptr %this, align 8
  %cmp.i = icmp eq ptr %6, null
  br i1 %cmp.i, label %if.end, label %_ZNK6vectorIjLb0EjE4sizeEv.exit

_ZNK6vectorIjLb0EjE4sizeEv.exit:                  ; preds = %_ZN6vectorIPN3sat6clauseELb0EjE4backEv.exit
  %arrayidx.i = getelementptr inbounds i8, ptr %6, i64 -4
  %7 = load i32, ptr %arrayidx.i, align 4
  %cmp = icmp ult i32 %5, %7
  br i1 %cmp, label %if.then, label %if.end

if.then:                                          ; preds = %_ZNK6vectorIjLb0EjE4sizeEv.exit
  %idxprom.i = zext i32 %5 to i64
  %arrayidx.i3 = getelementptr inbounds i32, ptr %6, i64 %idxprom.i
  store i32 -1, ptr %arrayidx.i3, align 4
  %.pre = load ptr, ptr %m_set, align 8
  br label %if.end

if.end:                                           ; preds = %_ZN6vectorIPN3sat6clauseELb0EjE4backEv.exit, %if.then, %_ZNK6vectorIjLb0EjE4sizeEv.exit
  %8 = phi ptr [ %0, %_ZN6vectorIPN3sat6clauseELb0EjE4backEv.exit ], [ %.pre, %if.then ], [ %0, %_ZNK6vectorIjLb0EjE4sizeEv.exit ]
  %arrayidx.i4 = getelementptr inbounds i8, ptr %8, i64 -4
  %9 = load i32, ptr %arrayidx.i4, align 4
  %dec.i = add i32 %9, -1
  store i32 %dec.i, ptr %arrayidx.i4, align 4
  ret ptr %4
}